target datalayout = "e-m:e-p270:32:32-p271:32:32-p272:64:64-i64:64-i128:128-f80:128-n8:16:32:64-S128"
target triple = "x86_64-pc-linux-gnu"

%struct.__va_list_tag = type { i32, i32, ptr, ptr }

; Function Attrs: nounwind uwtable
define dso_local i64 @php_printf_unchecked(ptr noundef %0, ...) #1 {
  %2 = alloca ptr, align 8
  %3 = alloca [1 x %struct.__va_list_tag], align 16
  %4 = alloca i64, align 8
  %5 = alloca ptr, align 8
  %6 = alloca i64, align 8
  store ptr %0, ptr %2, align 8, !tbaa !14
  call void @llvm.lifetime.start.p0(i64 24, ptr %3) #18
  call void @llvm.lifetime.start.p0(i64 8, ptr %4) #18
  call void @llvm.lifetime.start.p0(i64 8, ptr %5) #18
  call void @llvm.lifetime.start.p0(i64 8, ptr %6) #18
  %7 = getelementptr inbounds [1 x %struct.__va_list_tag], ptr %3, i64 0, i64 0
  call void @llvm.va_start.p0(ptr %7)
  %8 = load ptr, ptr %2, align 8, !tbaa !14
  %9 = getelementptr inbounds [1 x %struct.__va_list_tag], ptr %3, i64 0, i64 0
  %10 = call i64 @zend_vspprintf(ptr noundef %5, i64 noundef 0, ptr noundef %8, ptr noundef %9)
  store i64 %10, ptr %6, align 8, !tbaa !15
  %11 = load ptr, ptr %5, align 8, !tbaa !14
  %12 = load i64, ptr %6, align 8, !tbaa !15
  %13 = call i64 @php_output_write(ptr noundef %11, i64 noundef %12)
  store i64 %13, ptr %4, align 8, !tbaa !15
  %14 = load ptr, ptr %5, align 8, !tbaa !14
  call void @_efree(ptr noundef %14)
  %15 = getelementptr inbounds [1 x %struct.__va_list_tag], ptr %3, i64 0, i64 0
  call void @llvm.va_end.p0(ptr %15)
  %16 = load i64, ptr %4, align 8, !tbaa !15
  call void @llvm.lifetime.end.p0(i64 8, ptr %6) #18
  call void @llvm.lifetime.end.p0(i64 8, ptr %5) #18
  call void @llvm.lifetime.end.p0(i64 8, ptr %4) #18
  call void @llvm.lifetime.end.p0(i64 24, ptr %3) #18
  ret i64 %16
}