; Function Attrs: nounwind uwtable
define dso_local i64 @php_printf_unchecked(ptr noundef %0, ...) local_unnamed_addr #2 {
  %2 = alloca [1 x %struct.__va_list_tag], align 16
  %3 = alloca ptr, align 8
  call void @llvm.lifetime.start.p0(i64 24, ptr nonnull %2) #28
  call void @llvm.lifetime.start.p0(i64 8, ptr nonnull %3) #28
  call void @llvm.va_start.p0(ptr nonnull %2)
  %4 = call i64 @zend_vspprintf(ptr noundef nonnull %3, i64 noundef 0, ptr noundef %0, ptr noundef nonnull %2) #28
  %5 = load ptr, ptr %3, align 8, !tbaa !12
  %6 = call i64 @php_output_write(ptr noundef %5, i64 noundef %4) #28
  %7 = load ptr, ptr %3, align 8, !tbaa !12
  call void @_efree(ptr noundef %7) #28
  call void @llvm.va_end.p0(ptr nonnull %2)
  call void @llvm.lifetime.end.p0(i64 8, ptr nonnull %3) #28
  call void @llvm.lifetime.end.p0(i64 24, ptr nonnull %2) #28
  ret i64 %6
}